target datalayout = "e-m:e-p270:32:32-p271:32:32-p272:64:64-i64:64-i128:128-f80:128-n8:16:32:64-S128"
target triple = "x86_64-pc-linux-gnu"

%struct.QemuMutex = type { %union.pthread_mutex_t, i8 }
%union.pthread_mutex_t = type { %struct.__pthread_mutex_s }
%struct.__pthread_mutex_s = type { i32, i32, i32, i32, i32, i16, i16, %struct.__pthread_internal_list }
%struct.__pthread_internal_list = type { ptr, ptr }
%struct.QEnumLookup = type { ptr, ptr, i32 }
%struct.Job = type { ptr, ptr, ptr, i8, i8, ptr, ptr, %struct.ProgressMeter, ptr, i32, i32, %struct.QEMUTimer, i32, i8, i8, i8, i8, i8, i8, i32, ptr, %struct.NotifierList, %struct.NotifierList, %struct.NotifierList, %struct.NotifierList, %struct.NotifierList, %struct.anon.1, ptr, %struct.anon.2 }
%struct.ProgressMeter = type { i64, i64, %struct.QemuMutex }
%struct.QEMUTimer = type { i64, ptr, ptr, ptr, ptr, i32, i32 }
%struct.NotifierList = type { %struct.anon.0 }
%struct.anon.0 = type { ptr }
%struct.anon.1 = type { ptr, ptr }
%struct.anon.2 = type { ptr, ptr }
%struct.timeval = type { i64, i64 }

@.str = private unnamed_addr constant [14 x i8] c"../qemu/job.c\00", align 1
@.str.1 = private unnamed_addr constant [34 x i8] c"verb >= 0 && verb < JOB_VERB__MAX\00", align 1
@__PRETTY_FUNCTION__.job_apply_verb_locked = private unnamed_addr constant [52 x i8] c"int job_apply_verb_locked(Job *, JobVerb, Error **)\00", align 1
@JobStatus_lookup = external constant %struct.QEnumLookup, align 8
@JobVerb_lookup = external constant %struct.QEnumLookup, align 8
@.str.2 = private unnamed_addr constant [8 x i8] c"allowed\00", align 1
@.str.3 = private unnamed_addr constant [11 x i8] c"prohibited\00", align 1
@__func__.job_apply_verb_locked = private unnamed_addr constant [22 x i8] c"job_apply_verb_locked\00", align 1
@.str.4 = private unnamed_addr constant [55 x i8] c"Job '%s' in state '%s' cannot accept command verb '%s'\00", align 1
@trace_events_enabled_count = external global i32, align 4
@_TRACE_JOB_APPLY_VERB_DSTATE = external global i16, align 2
@message_with_timestamp = external global i8, align 1
@.str.30 = private unnamed_addr constant [71 x i8] c"%d@%zu.%06zu:job_apply_verb job %p in state %s; applying verb %s (%s)\0A\00", align 1
@.str.31 = private unnamed_addr constant [58 x i8] c"job_apply_verb job %p in state %s; applying verb %s (%s)\0A\00", align 1
@qemu_loglevel = external global i32, align 4

; Function Attrs: inlinehint nounwind sspstrong uwtable
define internal zeroext i1 @qemu_loglevel_mask(i32 noundef %0) #7 {
  %2 = alloca i32, align 4
  store i32 %0, ptr %2, align 4
  %3 = load i32, ptr @qemu_loglevel, align 4
  %4 = load i32, ptr %2, align 4
  %5 = and i32 %3, %4
  %6 = icmp ne i32 %5, 0
  ret i1 %6
}

; Function Attrs: inlinehint nounwind sspstrong uwtable
define internal void @_nocheck__trace_job_apply_verb(ptr noundef %0, ptr noundef %1, ptr noundef %2, ptr noundef %3) #7 {
  %5 = alloca ptr, align 8
  %6 = alloca ptr, align 8
  %7 = alloca ptr, align 8
  %8 = alloca ptr, align 8
  %9 = alloca %struct.timeval, align 8
  store ptr %0, ptr %5, align 8
  store ptr %1, ptr %6, align 8
  store ptr %2, ptr %7, align 8
  store ptr %3, ptr %8, align 8
  %10 = load i32, ptr @trace_events_enabled_count, align 4
  %11 = icmp ne i32 %10, 0
  %12 = xor i1 %11, true
  %13 = xor i1 %12, true
  %14 = zext i1 %13 to i32
  %15 = sext i32 %14 to i64
  %16 = call i64 @llvm.expect.i64(i64 %15, i64 0)
  %17 = icmp ne i64 %16, 0
  br i1 %17, label %18, label %44

18:                                               ; preds = %4
  %19 = load i16, ptr @_TRACE_JOB_APPLY_VERB_DSTATE, align 2
  %20 = zext i16 %19 to i32
  %21 = icmp ne i32 %20, 0
  br i1 %21, label %22, label %44

22:                                               ; preds = %18
  %23 = call zeroext i1 @qemu_loglevel_mask(i32 noundef 32768)
  br i1 %23, label %24, label %44

24:                                               ; preds = %22
  %25 = load i8, ptr @message_with_timestamp, align 1, !range !7, !noundef !8
  %26 = trunc i8 %25 to i1
  br i1 %26, label %27, label %38

27:                                               ; preds = %24
  call void @llvm.lifetime.start.p0(i64 16, ptr %9) #16
  call void @llvm.memset.p0.i64(ptr align 8 %9, i8 0, i64 16, i1 false), !annotation !5
  %28 = call i32 @gettimeofday(ptr noundef %9, ptr noundef null) #16
  %29 = call i32 @qemu_get_thread_id()
  %30 = getelementptr inbounds nuw %struct.timeval, ptr %9, i32 0, i32 0
  %31 = load i64, ptr %30, align 8
  %32 = getelementptr inbounds nuw %struct.timeval, ptr %9, i32 0, i32 1
  %33 = load i64, ptr %32, align 8
  %34 = load ptr, ptr %5, align 8
  %35 = load ptr, ptr %6, align 8
  %36 = load ptr, ptr %7, align 8
  %37 = load ptr, ptr %8, align 8
  call void (ptr, ...) @qemu_log(ptr noundef @.str.30, i32 noundef %29, i64 noundef %31, i64 noundef %33, ptr noundef %34, ptr noundef %35, ptr noundef %36, ptr noundef %37)
  call void @llvm.lifetime.end.p0(i64 16, ptr %9) #16
  br label %43

38:                                               ; preds = %24
  %39 = load ptr, ptr %5, align 8
  %40 = load ptr, ptr %6, align 8
  %41 = load ptr, ptr %7, align 8
  %42 = load ptr, ptr %8, align 8
  call void (ptr, ...) @qemu_log(ptr noundef @.str.31, ptr noundef %39, ptr noundef %40, ptr noundef %41, ptr noundef %42)
  br label %43

43:                                               ; preds = %38, %27
  br label %44

44:                                               ; preds = %43, %22, %18, %4
  ret void
}

; Function Attrs: inlinehint nounwind sspstrong uwtable
define internal void @trace_job_apply_verb(ptr noundef %0, ptr noundef %1, ptr noundef %2, ptr noundef %3) #7 {
  %5 = alloca ptr, align 8
  %6 = alloca ptr, align 8
  %7 = alloca ptr, align 8
  %8 = alloca ptr, align 8
  store ptr %0, ptr %5, align 8
  store ptr %1, ptr %6, align 8
  store ptr %2, ptr %7, align 8
  store ptr %3, ptr %8, align 8
  %9 = load ptr, ptr %5, align 8
  %10 = load ptr, ptr %6, align 8
  %11 = load ptr, ptr %7, align 8
  %12 = load ptr, ptr %8, align 8
  call void @_nocheck__trace_job_apply_verb(ptr noundef %9, ptr noundef %10, ptr noundef %11, ptr noundef %12)
  ret void
}

; Function Attrs: nounwind sspstrong uwtable
define dso_local i32 @job_apply_verb_locked(ptr noundef %0, i32 noundef %1, ptr noundef %2) #0 {
  %4 = alloca i32, align 4
  %5 = alloca ptr, align 8
  %6 = alloca i32, align 4
  %7 = alloca ptr, align 8
  %8 = alloca i32, align 4
  %9 = alloca i32, align 4
  store ptr %0, ptr %5, align 8
  store i32 %1, ptr %6, align 4
  store ptr %2, ptr %7, align 8
  call void @llvm.lifetime.start.p0(i64 4, ptr %8) #16
  %10 = load ptr, ptr %5, align 8
  %11 = getelementptr inbounds nuw %struct.Job, ptr %10, i32 0, i32 10
  %12 = load i32, ptr %11, align 4
  store i32 %12, ptr %8, align 4
  %13 = load i32, ptr %6, align 4
  %14 = icmp uge i32 %13, 0
  br i1 %14, label %15, label %19

15:                                               ; preds = %3
  %16 = load i32, ptr %6, align 4
  %17 = icmp ult i32 %16, 8
  br i1 %17, label %18, label %19

18:                                               ; preds = %15
  br label %20

19:                                               ; preds = %15, %3
  call void @__assert_fail(ptr noundef @.str.1, ptr noundef @.str, i32 noundef 226, ptr noundef @__PRETTY_FUNCTION__.job_apply_verb_locked) #20
  unreachable

20:                                               ; preds = %18
  %21 = load ptr, ptr %5, align 8
  %22 = load i32, ptr %8, align 4
  %23 = call ptr @qapi_enum_lookup(ptr noundef @JobStatus_lookup, i32 noundef %22)
  %24 = load i32, ptr %6, align 4
  %25 = call ptr @qapi_enum_lookup(ptr noundef @JobVerb_lookup, i32 noundef %24)
  %26 = load i32, ptr %6, align 4
  %27 = zext i32 %26 to i64
  %28 = getelementptr inbounds nuw [8 x [11 x i8]], ptr @JobVerbTable, i64 0, i64 %27
  %29 = load i32, ptr %8, align 4
  %30 = zext i32 %29 to i64
  %31 = getelementptr inbounds nuw [11 x i8], ptr %28, i64 0, i64 %30
  %32 = load i8, ptr %31, align 1, !range !7, !noundef !8
  %33 = trunc i8 %32 to i1
  %34 = select i1 %33, ptr @.str.2, ptr @.str.3
  call void @trace_job_apply_verb(ptr noundef %21, ptr noundef %23, ptr noundef %25, ptr noundef %34)
  %35 = load i32, ptr %6, align 4
  %36 = zext i32 %35 to i64
  %37 = getelementptr inbounds nuw [8 x [11 x i8]], ptr @JobVerbTable, i64 0, i64 %36
  %38 = load i32, ptr %8, align 4
  %39 = zext i32 %38 to i64
  %40 = getelementptr inbounds nuw [11 x i8], ptr %37, i64 0, i64 %39
  %41 = load i8, ptr %40, align 1, !range !7, !noundef !8
  %42 = trunc i8 %41 to i1
  br i1 %42, label %43, label %44

43:                                               ; preds = %20
  store i32 0, ptr %4, align 4
  store i32 1, ptr %9, align 4
  br label %53

44:                                               ; preds = %20
  %45 = load ptr, ptr %7, align 8
  %46 = load ptr, ptr %5, align 8
  %47 = getelementptr inbounds nuw %struct.Job, ptr %46, i32 0, i32 0
  %48 = load ptr, ptr %47, align 8
  %49 = load i32, ptr %8, align 4
  %50 = call ptr @qapi_enum_lookup(ptr noundef @JobStatus_lookup, i32 noundef %49)
  %51 = load i32, ptr %6, align 4
  %52 = call ptr @qapi_enum_lookup(ptr noundef @JobVerb_lookup, i32 noundef %51)
  call void (ptr, ptr, i32, ptr, ptr, ...) @error_setg_internal(ptr noundef %45, ptr noundef @.str, i32 noundef 233, ptr noundef @__func__.job_apply_verb_locked, ptr noundef @.str.4, ptr noundef %48, ptr noundef %50, ptr noundef %52)
  store i32 -1, ptr %4, align 4
  store i32 1, ptr %9, align 4
  br label %53

53:                                               ; preds = %44, %43
  call void @llvm.lifetime.end.p0(i64 4, ptr %8) #16
  %54 = load i32, ptr %4, align 4
  ret i32 %54
}