; Function Attrs: nounwind sspstrong uwtable
define dso_local range(i32 -1, 1) i32 @job_apply_verb_locked(ptr noundef %0, i32 noundef %1, ptr noundef %2) local_unnamed_addr #0 {
  %4 = alloca %struct.timeval, align 8
  %5 = getelementptr inbounds nuw i8, ptr %0, i64 124
  %6 = load i32, ptr %5, align 4
  %7 = icmp ult i32 %1, 8
  br i1 %7, label %9, label %8

8:                                                ; preds = %3
  tail call void @__assert_fail(ptr noundef nonnull @.str.1, ptr noundef nonnull @.str, i32 noundef 226, ptr noundef nonnull @__PRETTY_FUNCTION__.job_apply_verb_locked) #17
  unreachable

9:                                                ; preds = %3
  %10 = tail call ptr @qapi_enum_lookup(ptr noundef nonnull @JobStatus_lookup, i32 noundef %6) #15
  %11 = tail call ptr @qapi_enum_lookup(ptr noundef nonnull @JobVerb_lookup, i32 noundef %1) #15
  %12 = zext nneg i32 %1 to i64
  %13 = zext i32 %6 to i64
  %14 = getelementptr inbounds nuw [8 x [11 x i8]], ptr @JobVerbTable, i64 0, i64 %12, i64 %13
  %15 = load i8, ptr %14, align 1, !range !4, !noundef !5
  %16 = trunc nuw i8 %15 to i1
  %17 = select i1 %16, ptr @.str.2, ptr @.str.3
  %18 = load i32, ptr @trace_events_enabled_count, align 4
  %.not.i.i = icmp eq i32 %18, 0
  br i1 %.not.i.i, label %trace_job_apply_verb.exit, label %19, !prof !6

19:                                               ; preds = %9
  %20 = load i16, ptr @_TRACE_JOB_APPLY_VERB_DSTATE, align 2
  %.not8.i.i = icmp eq i16 %20, 0
  br i1 %.not8.i.i, label %trace_job_apply_verb.exit, label %21

21:                                               ; preds = %19
  %22 = load i32, ptr @qemu_loglevel, align 4
  %23 = and i32 %22, 32768
  %.not9.i.i = icmp eq i32 %23, 0
  br i1 %.not9.i.i, label %trace_job_apply_verb.exit, label %24

24:                                               ; preds = %21
  %25 = load i8, ptr @message_with_timestamp, align 1, !range !4, !noundef !5
  %26 = trunc nuw i8 %25 to i1
  br i1 %26, label %27, label %33

27:                                               ; preds = %24
  call void @llvm.lifetime.start.p0(i64 16, ptr nonnull %4) #15
  call void @llvm.memset.p0.i64(ptr noundef nonnull align 8 dereferenceable(16) %4, i8 0, i64 16, i1 false), !annotation !7
  %28 = call i32 @gettimeofday(ptr noundef nonnull %4, ptr noundef null) #15
  %29 = tail call i32 @qemu_get_thread_id() #15
  %30 = load i64, ptr %4, align 8
  %31 = getelementptr inbounds nuw i8, ptr %4, i64 8
  %32 = load i64, ptr %31, align 8
  tail call void (ptr, ...) @qemu_log(ptr noundef nonnull @.str.30, i32 noundef %29, i64 noundef %30, i64 noundef %32, ptr noundef nonnull %0, ptr noundef %10, ptr noundef %11, ptr noundef nonnull %17) #15
  call void @llvm.lifetime.end.p0(i64 16, ptr nonnull %4) #15
  br label %trace_job_apply_verb.exit

33:                                               ; preds = %24
  tail call void (ptr, ...) @qemu_log(ptr noundef nonnull @.str.31, ptr noundef nonnull %0, ptr noundef %10, ptr noundef %11, ptr noundef nonnull %17) #15
  br label %trace_job_apply_verb.exit

trace_job_apply_verb.exit:                        ; preds = %9, %19, %21, %27, %33
  %34 = load i8, ptr %14, align 1, !range !4, !noundef !5
  %35 = trunc nuw i8 %34 to i1
  br i1 %35, label %40, label %36

36:                                               ; preds = %trace_job_apply_verb.exit
  %37 = load ptr, ptr %0, align 8
  %38 = tail call ptr @qapi_enum_lookup(ptr noundef nonnull @JobStatus_lookup, i32 noundef %6) #15
  %39 = tail call ptr @qapi_enum_lookup(ptr noundef nonnull @JobVerb_lookup, i32 noundef %1) #15
  tail call void (ptr, ptr, i32, ptr, ptr, ...) @error_setg_internal(ptr noundef %2, ptr noundef nonnull @.str, i32 noundef 233, ptr noundef nonnull @__func__.job_apply_verb_locked, ptr noundef nonnull @.str.4, ptr noundef %37, ptr noundef %38, ptr noundef %39) #15
  br label %40

40:                                               ; preds = %trace_job_apply_verb.exit, %36
  %.0 = phi i32 [ -1, %36 ], [ 0, %trace_job_apply_verb.exit ]
  ret i32 %.0
}